; Function Attrs: mustprogress nounwind uwtable
define internal fastcc void @_ZN4node9inspector12_GLOBAL__N_111MapToStringERKSt3mapINSt7__cxx1112basic_stringIcSt11char_traitsIcESaIcEEES8_St4lessIS8_ESaISt4pairIKS8_S8_EEE(ptr noalias align 8 %agg.result, ptr noundef nonnull readonly align 8 dereferenceable(48) %object) unnamed_addr #0 {
entry:
  %json = alloca %"class.std::__cxx11::basic_ostringstream", align 8
  call void @_ZNSt7__cxx1119basic_ostringstreamIcSt11char_traitsIcESaIcEEC1Ev(ptr noundef nonnull align 8 dereferenceable(112) %json) #19
  %call = call noundef nonnull align 8 dereferenceable(8) ptr @_ZStlsISt11char_traitsIcEERSt13basic_ostreamIcT_ES5_PKc(ptr noundef nonnull align 8 dereferenceable(8) %json, ptr noundef nonnull @.str.54) #19
  %_M_left.i.i = getelementptr inbounds i8, ptr %object, i64 24
  %0 = load ptr, ptr %_M_left.i.i, align 8
  %add.ptr.i.i = getelementptr inbounds i8, ptr %object, i64 8
  %cmp.i.not5 = icmp eq ptr %0, %add.ptr.i.i
  br i1 %cmp.i.not5, label %for.end, label %for.body

for.body:                                         ; preds = %entry, %if.end
  %first.07 = phi i1 [ false, %if.end ], [ true, %entry ]
  %__begin2.sroa.0.06 = phi ptr [ %call.i, %if.end ], [ %0, %entry ]
  %_M_storage.i.i = getelementptr inbounds i8, ptr %__begin2.sroa.0.06, i64 32
  br i1 %first.07, label %if.end, label %if.then

if.then:                                          ; preds = %for.body
  %call6 = call noundef nonnull align 8 dereferenceable(8) ptr @_ZStlsISt11char_traitsIcEERSt13basic_ostreamIcT_ES5_PKc(ptr noundef nonnull align 8 dereferenceable(8) %json, ptr noundef nonnull @.str.55) #19
  br label %if.end

if.end:                                           ; preds = %if.then, %for.body
  %call7 = call noundef nonnull align 8 dereferenceable(8) ptr @_ZStlsISt11char_traitsIcEERSt13basic_ostreamIcT_ES5_PKc(ptr noundef nonnull align 8 dereferenceable(8) %json, ptr noundef nonnull @.str.56) #19
  %call9 = call noundef nonnull align 8 dereferenceable(8) ptr @_ZStlsIcSt11char_traitsIcESaIcEERSt13basic_ostreamIT_T0_ES7_RKNSt7__cxx1112basic_stringIS4_S5_T1_EE(ptr noundef nonnull align 8 dereferenceable(8) %call7, ptr noundef nonnull align 8 dereferenceable(32) %_M_storage.i.i) #19
  %call10 = call noundef nonnull align 8 dereferenceable(8) ptr @_ZStlsISt11char_traitsIcEERSt13basic_ostreamIcT_ES5_PKc(ptr noundef nonnull align 8 dereferenceable(8) %call9, ptr noundef nonnull @.str.57) #19
  %second = getelementptr inbounds i8, ptr %__begin2.sroa.0.06, i64 64
  %call11 = call noundef nonnull align 8 dereferenceable(8) ptr @_ZStlsIcSt11char_traitsIcESaIcEERSt13basic_ostreamIT_T0_ES7_RKNSt7__cxx1112basic_stringIS4_S5_T1_EE(ptr noundef nonnull align 8 dereferenceable(8) %json, ptr noundef nonnull align 8 dereferenceable(32) %second) #19
  %call12 = call noundef nonnull align 8 dereferenceable(8) ptr @_ZStlsISt11char_traitsIcEERSt13basic_ostreamIcT_ES5_PKc(ptr noundef nonnull align 8 dereferenceable(8) %call11, ptr noundef nonnull @.str.58) #19
  %call.i = call noundef ptr @_ZSt18_Rb_tree_incrementPKSt18_Rb_tree_node_base(ptr noundef %__begin2.sroa.0.06) #22
  %cmp.i.not = icmp eq ptr %call.i, %add.ptr.i.i
  br i1 %cmp.i.not, label %for.end, label %for.body

for.end:                                          ; preds = %if.end, %entry
  %call14 = call noundef nonnull align 8 dereferenceable(8) ptr @_ZStlsISt11char_traitsIcEERSt13basic_ostreamIcT_ES5_PKc(ptr noundef nonnull align 8 dereferenceable(8) %json, ptr noundef nonnull @.str.59) #19
  call void @_ZNKSt7__cxx1119basic_ostringstreamIcSt11char_traitsIcESaIcEE3strEv(ptr sret(%"class.std::__cxx11::basic_string") align 8 %agg.result, ptr noundef nonnull align 8 dereferenceable(112) %json) #19
  call void @_ZNSt7__cxx1119basic_ostringstreamIcSt11char_traitsIcESaIcEED1Ev(ptr noundef nonnull align 8 dereferenceable(112) %json) #19
  ret void
}